; Function Attrs: nounwind uwtable
define internal fastcc void @Vec_IntTwoMerge2(ptr noundef readonly captures(none) %0, ptr noundef readonly captures(none) %1, ptr noundef captures(none) %2) unnamed_addr #1 {
  %4 = getelementptr i8, ptr %0, i64 4
  %.val6 = load i32, ptr %4, align 4
  %5 = getelementptr i8, ptr %1, i64 4
  %.val = load i32, ptr %5, align 4
  %6 = add nsw i32 %.val, %.val6
  %7 = load i32, ptr %2, align 8
  %.not.i = icmp slt i32 %7, %6
  %8 = getelementptr inbounds nuw i8, ptr %2, i64 8
  %9 = load ptr, ptr %8, align 8
  br i1 %.not.i, label %10, label %Vec_IntGrow.exit

10:                                               ; preds = %3
  %.not9.i = icmp eq ptr %9, null
  %11 = sext i32 %6 to i64
  %12 = shl nsw i64 %11, 2
  br i1 %.not9.i, label %15, label %13

13:                                               ; preds = %10
  %14 = tail call ptr @realloc(ptr noundef nonnull %9, i64 noundef %12) #28
  br label %17

15:                                               ; preds = %10
  %16 = tail call noalias ptr @malloc(i64 noundef %12) #27
  br label %17

17:                                               ; preds = %15, %13
  %18 = phi ptr [ %14, %13 ], [ %16, %15 ]
  store ptr %18, ptr %8, align 8
  store i32 %6, ptr %2, align 8
  %.val7.pre = load i32, ptr %4, align 4
  %.val9.pre = load i32, ptr %5, align 4
  br label %Vec_IntGrow.exit

Vec_IntGrow.exit:                                 ; preds = %3, %17
  %19 = phi ptr [ %18, %17 ], [ %9, %3 ]
  %.val9 = phi i32 [ %.val9.pre, %17 ], [ %.val, %3 ]
  %.val7 = phi i32 [ %.val7.pre, %17 ], [ %.val6, %3 ]
  %20 = getelementptr i8, ptr %0, i64 8
  %.val8 = load ptr, ptr %20, align 8
  %21 = getelementptr i8, ptr %1, i64 8
  %.val10 = load ptr, ptr %21, align 8
  %22 = sext i32 %.val7 to i64
  %23 = getelementptr inbounds i32, ptr %.val8, i64 %22
  %24 = sext i32 %.val9 to i64
  %25 = getelementptr inbounds i32, ptr %.val10, i64 %24
  %26 = icmp sgt i32 %.val7, 0
  %27 = icmp sgt i32 %.val9, 0
  %28 = select i1 %26, i1 %27, i1 false
  br i1 %28, label %.lr.ph.i, label %.preheader5.i

.preheader5.i:                                    ; preds = %42, %Vec_IntGrow.exit
  %.036.lcssa.i = phi ptr [ %.val10, %Vec_IntGrow.exit ], [ %.137.i, %42 ]
  %.033.lcssa.i = phi ptr [ %.val8, %Vec_IntGrow.exit ], [ %.134.i, %42 ]
  %.0.lcssa.i = phi ptr [ %19, %Vec_IntGrow.exit ], [ %.1.i, %42 ]
  %29 = icmp ult ptr %.033.lcssa.i, %23
  br i1 %29, label %.lr.ph13.i, label %.preheader.i

.lr.ph.i:                                         ; preds = %Vec_IntGrow.exit, %42
  %.08.i = phi ptr [ %.1.i, %42 ], [ %19, %Vec_IntGrow.exit ]
  %.0337.i = phi ptr [ %.134.i, %42 ], [ %.val8, %Vec_IntGrow.exit ]
  %.0366.i = phi ptr [ %.137.i, %42 ], [ %.val10, %Vec_IntGrow.exit ]
  %30 = load i32, ptr %.0337.i, align 4
  %31 = load i32, ptr %.0366.i, align 4
  %32 = icmp eq i32 %30, %31
  br i1 %32, label %33, label %36

33:                                               ; preds = %.lr.ph.i
  %34 = getelementptr inbounds nuw i8, ptr %.0337.i, i64 4
  store i32 %30, ptr %.08.i, align 4
  %35 = getelementptr inbounds nuw i8, ptr %.0366.i, i64 4
  br label %42

36:                                               ; preds = %.lr.ph.i
  %37 = icmp slt i32 %30, %31
  br i1 %37, label %38, label %40

38:                                               ; preds = %36
  %39 = getelementptr inbounds nuw i8, ptr %.0337.i, i64 4
  store i32 %30, ptr %.08.i, align 4
  br label %42

40:                                               ; preds = %36
  %41 = getelementptr inbounds nuw i8, ptr %.0366.i, i64 4
  store i32 %31, ptr %.08.i, align 4
  br label %42

42:                                               ; preds = %40, %38, %33
  %.137.i = phi ptr [ %35, %33 ], [ %.0366.i, %38 ], [ %41, %40 ]
  %.134.i = phi ptr [ %34, %33 ], [ %39, %38 ], [ %.0337.i, %40 ]
  %.1.i = getelementptr inbounds nuw i8, ptr %.08.i, i64 4
  %43 = icmp ult ptr %.134.i, %23
  %44 = icmp ult ptr %.137.i, %25
  %45 = select i1 %43, i1 %44, i1 false
  br i1 %45, label %.lr.ph.i, label %.preheader5.i, !llvm.loop !368

.preheader.i:                                     ; preds = %.lr.ph13.i, %.preheader5.i
  %.2.lcssa.i = phi ptr [ %.0.lcssa.i, %.preheader5.i ], [ %49, %.lr.ph13.i ]
  %46 = icmp ult ptr %.036.lcssa.i, %25
  br i1 %46, label %.lr.ph17.i, label %Vec_IntTwoMerge2Int.exit

.lr.ph13.i:                                       ; preds = %.preheader5.i, %.lr.ph13.i
  %.212.i = phi ptr [ %49, %.lr.ph13.i ], [ %.0.lcssa.i, %.preheader5.i ]
  %.23511.i = phi ptr [ %47, %.lr.ph13.i ], [ %.033.lcssa.i, %.preheader5.i ]
  %47 = getelementptr inbounds nuw i8, ptr %.23511.i, i64 4
  %48 = load i32, ptr %.23511.i, align 4
  %49 = getelementptr inbounds nuw i8, ptr %.212.i, i64 4
  store i32 %48, ptr %.212.i, align 4
  %50 = icmp ult ptr %47, %23
  br i1 %50, label %.lr.ph13.i, label %.preheader.i, !llvm.loop !369

.lr.ph17.i:                                       ; preds = %.preheader.i, %.lr.ph17.i
  %.316.i = phi ptr [ %53, %.lr.ph17.i ], [ %.2.lcssa.i, %.preheader.i ]
  %.23815.i = phi ptr [ %51, %.lr.ph17.i ], [ %.036.lcssa.i, %.preheader.i ]
  %51 = getelementptr inbounds nuw i8, ptr %.23815.i, i64 4
  %52 = load i32, ptr %.23815.i, align 4
  %53 = getelementptr inbounds nuw i8, ptr %.316.i, i64 4
  store i32 %52, ptr %.316.i, align 4
  %54 = icmp ult ptr %51, %25
  br i1 %54, label %.lr.ph17.i, label %Vec_IntTwoMerge2Int.exit, !llvm.loop !370

Vec_IntTwoMerge2Int.exit:                         ; preds = %.lr.ph17.i, %.preheader.i
  %.3.lcssa.i = phi ptr [ %.2.lcssa.i, %.preheader.i ], [ %53, %.lr.ph17.i ]
  %55 = getelementptr inbounds nuw i8, ptr %2, i64 8
  %56 = load ptr, ptr %55, align 8
  %57 = ptrtoint ptr %.3.lcssa.i to i64
  %58 = ptrtoint ptr %56 to i64
  %59 = sub i64 %57, %58
  %60 = lshr exact i64 %59, 2
  %61 = trunc i64 %60 to i32
  %62 = getelementptr inbounds nuw i8, ptr %2, i64 4
  store i32 %61, ptr %62, align 4
  ret void
}